; Function Attrs: nounwind uwtable
define hidden i32 @mbedtls_mpi_is_prime_ext(ptr noundef readonly captures(none) %0, i32 noundef %1, ptr noundef %2, ptr noundef %3) local_unnamed_addr #0 {
  %5 = alloca %struct.mbedtls_mpi, align 8
  call void @llvm.lifetime.start.p0(i64 16, ptr nonnull %5) #16
  %6 = getelementptr inbounds nuw i8, ptr %5, i64 8
  store i16 1, ptr %6, align 8, !tbaa !10
  %7 = getelementptr inbounds nuw i8, ptr %0, i64 10
  %8 = load i16, ptr %7, align 2, !tbaa !3
  %9 = getelementptr inbounds nuw i8, ptr %5, i64 10
  store i16 %8, ptr %9, align 2, !tbaa !3
  %10 = load ptr, ptr %0, align 8, !tbaa !12
  store ptr %10, ptr %5, align 8, !tbaa !12
  %.not44.i.i = icmp eq i16 %8, 0
  br i1 %.not44.i.i, label %mbedtls_mpi_cmp_int.exit19, label %.lr.ph.i.i

.lr.ph.i.i:                                       ; preds = %4
  %11 = zext i16 %8 to i64
  %invariant.gep.i.i = getelementptr i8, ptr %10, i64 -8
  br label %12

12:                                               ; preds = %14, %.lr.ph.i.i
  %.03545.i.i = phi i64 [ %11, %.lr.ph.i.i ], [ %15, %14 ]
  %gep.i.i = getelementptr i64, ptr %invariant.gep.i.i, i64 %.03545.i.i
  %13 = load i64, ptr %gep.i.i, align 8, !tbaa !17
  %.not39.i.i = icmp eq i64 %13, 0
  br i1 %.not39.i.i, label %14, label %.lr.ph51.i.i

14:                                               ; preds = %12
  %15 = add nsw i64 %.03545.i.i, -1
  %.not.i.i = icmp eq i64 %15, 0
  br i1 %.not.i.i, label %mbedtls_mpi_cmp_int.exit19, label %12, !llvm.loop !31

.lr.ph51.i.i:                                     ; preds = %12
  %or.cond.i.i = icmp eq i64 %.03545.i.i, 0
  br i1 %or.cond.i.i, label %mbedtls_mpi_cmp_int.exit19, label %.lr.ph.i.i9

.lr.ph.i.i9:                                      ; preds = %.lr.ph51.i.i, %17
  %.03545.i.i11 = phi i64 [ %18, %17 ], [ %11, %.lr.ph51.i.i ]
  %gep.i.i12 = getelementptr i64, ptr %invariant.gep.i.i, i64 %.03545.i.i11
  %16 = load i64, ptr %gep.i.i12, align 8, !tbaa !17
  %.not39.i.i13 = icmp eq i64 %16, 0
  br i1 %.not39.i.i13, label %17, label %.lr.ph51.i.i14

17:                                               ; preds = %.lr.ph.i.i9
  %18 = add nsw i64 %.03545.i.i11, -1
  %.not.i.i18 = icmp eq i64 %18, 0
  br i1 %.not.i.i18, label %.lr.ph.i.i21.preheader, label %.lr.ph.i.i9, !llvm.loop !31

.lr.ph51.i.i14:                                   ; preds = %.lr.ph.i.i9
  %or.cond.not = icmp eq i64 %.03545.i.i11, 1
  br i1 %or.cond.not, label %.preheader.i.i, label %.lr.ph.i.i21.preheader

.preheader.i.i:                                   ; preds = %.lr.ph51.i.i14, %19
  %.1.i.i = phi i64 [ %20, %19 ], [ 1, %.lr.ph51.i.i14 ]
  %.not42.i.i = icmp eq i64 %.1.i.i, 0
  br i1 %.not42.i.i, label %mbedtls_mpi_cmp_int.exit19, label %19

19:                                               ; preds = %.preheader.i.i
  %20 = add nsw i64 %.1.i.i, -1
  %21 = getelementptr inbounds nuw i64, ptr %10, i64 %20
  %22 = load i64, ptr %21, align 8, !tbaa !17
  %or.cond48.not = icmp eq i64 %22, 1
  br i1 %or.cond48.not, label %.preheader.i.i, label %.lr.ph.i.i21.preheader, !llvm.loop !38

.lr.ph.i.i21.preheader:                           ; preds = %17, %19, %.lr.ph51.i.i14
  br label %.lr.ph.i.i21

.lr.ph.i.i21:                                     ; preds = %.lr.ph.i.i21.preheader, %24
  %.03545.i.i23 = phi i64 [ %25, %24 ], [ %11, %.lr.ph.i.i21.preheader ]
  %gep.i.i24 = getelementptr i64, ptr %invariant.gep.i.i, i64 %.03545.i.i23
  %23 = load i64, ptr %gep.i.i24, align 8, !tbaa !17
  %.not39.i.i25 = icmp eq i64 %23, 0
  br i1 %.not39.i.i25, label %24, label %.lr.ph51.i.i26

24:                                               ; preds = %.lr.ph.i.i21
  %25 = add nsw i64 %.03545.i.i23, -1
  %.not.i.i34 = icmp eq i64 %25, 0
  br i1 %.not.i.i34, label %.thread45, label %.lr.ph.i.i21, !llvm.loop !31

.lr.ph51.i.i26:                                   ; preds = %.lr.ph.i.i21
  %or.cond49.not = icmp eq i64 %.03545.i.i23, 1
  br i1 %or.cond49.not, label %.preheader.i.i30, label %.thread45

.preheader.i.i30:                                 ; preds = %.lr.ph51.i.i26, %26
  %.1.i.i31 = phi i64 [ %27, %26 ], [ 1, %.lr.ph51.i.i26 ]
  %.not42.i.i32 = icmp eq i64 %.1.i.i31, 0
  br i1 %.not42.i.i32, label %mbedtls_mpi_cmp_int.exit19, label %26

26:                                               ; preds = %.preheader.i.i30
  %27 = add nsw i64 %.1.i.i31, -1
  %28 = getelementptr inbounds nuw i64, ptr %10, i64 %27
  %29 = load i64, ptr %28, align 8, !tbaa !17
  %or.cond50.not = icmp eq i64 %29, 2
  br i1 %or.cond50.not, label %.preheader.i.i30, label %.thread45, !llvm.loop !38

.thread45:                                        ; preds = %24, %26, %.lr.ph51.i.i26
  %30 = call fastcc i32 @mpi_check_small_factors(ptr noundef nonnull %5)
  switch i32 %30, label %31 [
    i32 0, label %32
    i32 1, label %mbedtls_mpi_cmp_int.exit19
  ]

31:                                               ; preds = %.thread45
  br label %mbedtls_mpi_cmp_int.exit19

32:                                               ; preds = %.thread45
  %33 = sext i32 %1 to i64
  %34 = call fastcc i32 @mpi_miller_rabin(ptr noundef nonnull %5, i64 noundef %33, ptr noundef %2, ptr noundef %3)
  br label %mbedtls_mpi_cmp_int.exit19

mbedtls_mpi_cmp_int.exit19:                       ; preds = %14, %.preheader.i.i, %.preheader.i.i30, %4, %.lr.ph51.i.i, %.thread45, %32, %31
  %.0 = phi i32 [ %30, %31 ], [ %34, %32 ], [ 0, %.thread45 ], [ -14, %.lr.ph51.i.i ], [ -14, %4 ], [ 0, %.preheader.i.i30 ], [ -14, %.preheader.i.i ], [ -14, %14 ]
  call void @llvm.lifetime.end.p0(i64 16, ptr nonnull %5) #16
  ret i32 %.0
}